target datalayout = "e-m:e-p270:32:32-p271:32:32-p272:64:64-i64:64-i128:128-f80:128-n8:16:32:64-S128"
target triple = "x86_64-pc-linux-gnu"

%"class.sls::bvect" = type <{ %class.svector, i32, i32, i32, [4 x i8] }>
%class.svector = type { %class.vector }
%class.vector = type { ptr }
%"class.sls::bv_valuation" = type { %"class.sls::bvect", %"class.sls::bvect", %"class.sls::bvect", %"class.sls::bvect", %"class.sls::bvect", %"class.sls::bvect", i32, i32, i32, i32, %"class.sls::bvect" }

; Function Attrs: mustprogress nounwind uwtable
define linkonce_odr hidden noundef nonnull align 4 dereferenceable(4) ptr @_ZNK6vectorIjLb0EjEixEj(ptr noundef nonnull align 8 dereferenceable(8) %0, i32 noundef %1) #5 comdat align 2 {
  %3 = alloca ptr, align 8
  %4 = alloca i32, align 4
  store ptr %0, ptr %3, align 8, !tbaa !17
  store i32 %1, ptr %4, align 4, !tbaa !8
  %5 = load ptr, ptr %3, align 8
  %6 = getelementptr inbounds nuw %class.vector, ptr %5, i32 0, i32 0
  %7 = load ptr, ptr %6, align 8, !tbaa !19
  %8 = load i32, ptr %4, align 4, !tbaa !8
  %9 = zext i32 %8 to i64
  %10 = getelementptr inbounds nuw i32, ptr %7, i64 %9
  ret ptr %10
}

; Function Attrs: mustprogress nounwind uwtable
define linkonce_odr hidden noundef i32 @_ZN3sls5bvect12get_pos_maskEj(i32 noundef %0) #5 comdat align 2 {
  %2 = alloca i32, align 4
  store i32 %0, ptr %2, align 4, !tbaa !8
  %3 = load i32, ptr %2, align 4, !tbaa !8
  %4 = zext i32 %3 to i64
  %5 = urem i64 %4, 32
  %6 = trunc i64 %5 to i32
  %7 = shl i32 1, %6
  ret i32 %7
}

; Function Attrs: mustprogress uwtable
define linkonce_odr hidden noundef i32 @_ZNK3sls5bvect12get_bit_wordEj(ptr noundef nonnull align 8 dereferenceable(20) %0, i32 noundef %1) #4 comdat align 2 {
  %3 = alloca ptr, align 8
  %4 = alloca i32, align 4
  store ptr %0, ptr %3, align 8, !tbaa !3
  store i32 %1, ptr %4, align 4, !tbaa !8
  %5 = load ptr, ptr %3, align 8
  %6 = load i32, ptr %4, align 4, !tbaa !8
  %7 = zext i32 %6 to i64
  %8 = udiv i64 %7, 32
  %9 = trunc i64 %8 to i32
  %10 = call noundef nonnull align 4 dereferenceable(4) ptr @_ZNK6vectorIjLb0EjEixEj(ptr noundef nonnull align 8 dereferenceable(8) %5, i32 noundef %9)
  %11 = load i32, ptr %10, align 4, !tbaa !8
  ret i32 %11
}

; Function Attrs: mustprogress uwtable
define linkonce_odr hidden noundef zeroext i1 @_ZNK3sls5bvect3getEj(ptr noundef nonnull align 8 dereferenceable(20) %0, i32 noundef %1) #4 comdat align 2 {
  %3 = alloca ptr, align 8
  %4 = alloca i32, align 4
  store ptr %0, ptr %3, align 8, !tbaa !3
  store i32 %1, ptr %4, align 4, !tbaa !8
  %5 = load ptr, ptr %3, align 8
  %6 = load i32, ptr %4, align 4, !tbaa !8
  %7 = call noundef i32 @_ZNK3sls5bvect12get_bit_wordEj(ptr noundef nonnull align 8 dereferenceable(20) %5, i32 noundef %6)
  %8 = load i32, ptr %4, align 4, !tbaa !8
  %9 = call noundef i32 @_ZN3sls5bvect12get_pos_maskEj(i32 noundef %8)
  %10 = and i32 %7, %9
  %11 = icmp ne i32 %10, 0
  ret i1 %11
}

; Function Attrs: mustprogress uwtable
define hidden noundef i32 @_ZNK3sls12bv_valuation3clzERKNS_5bvectE(ptr noundef nonnull align 8 dereferenceable(184) %0, ptr noundef nonnull align 8 dereferenceable(20) %1) #4 align 2 {
  %3 = alloca i32, align 4
  %4 = alloca ptr, align 8
  %5 = alloca ptr, align 8
  %6 = alloca i32, align 4
  %7 = alloca i32, align 4
  store ptr %0, ptr %4, align 8, !tbaa !53
  store ptr %1, ptr %5, align 8, !tbaa !3
  %8 = load ptr, ptr %4, align 8
  call void @llvm.lifetime.start.p0(i64 4, ptr %6) #3
  %9 = getelementptr inbounds nuw %"class.sls::bv_valuation", ptr %8, i32 0, i32 8
  %10 = load i32, ptr %9, align 8, !tbaa !60
  store i32 %10, ptr %6, align 4, !tbaa !8
  br label %11

11:                                               ; preds = %25, %2
  %12 = load i32, ptr %6, align 4, !tbaa !8
  %13 = add i32 %12, -1
  store i32 %13, ptr %6, align 4, !tbaa !8
  %14 = icmp ugt i32 %12, 0
  br i1 %14, label %15, label %26

15:                                               ; preds = %11
  %16 = load ptr, ptr %5, align 8, !tbaa !3
  %17 = load i32, ptr %6, align 4, !tbaa !8
  %18 = call noundef zeroext i1 @_ZNK3sls5bvect3getEj(ptr noundef nonnull align 8 dereferenceable(20) %16, i32 noundef %17)
  br i1 %18, label %25, label %19

19:                                               ; preds = %15
  %20 = getelementptr inbounds nuw %"class.sls::bv_valuation", ptr %8, i32 0, i32 8
  %21 = load i32, ptr %20, align 8, !tbaa !60
  %22 = sub i32 %21, 1
  %23 = load i32, ptr %6, align 4, !tbaa !8
  %24 = sub i32 %22, %23
  store i32 %24, ptr %3, align 4
  store i32 1, ptr %7, align 4
  br label %29

25:                                               ; preds = %15
  br label %11, !llvm.loop !105

26:                                               ; preds = %11
  %27 = getelementptr inbounds nuw %"class.sls::bv_valuation", ptr %8, i32 0, i32 8
  %28 = load i32, ptr %27, align 8, !tbaa !60
  store i32 %28, ptr %3, align 4
  store i32 1, ptr %7, align 4
  br label %29

29:                                               ; preds = %26, %19
  call void @llvm.lifetime.end.p0(i64 4, ptr %6) #3
  %30 = load i32, ptr %3, align 4
  ret i32 %30
}