; Function Attrs: mustprogress nofree norecurse nosync nounwind willreturn memory(read, inaccessiblemem: none) uwtable
define hidden noundef i32 @_ZNK3sls12bv_valuation3clzERKNS_5bvectE(ptr noundef nonnull readonly align 8 captures(none) dereferenceable(184) %0, ptr noundef nonnull readonly align 8 captures(none) dereferenceable(20) %1) local_unnamed_addr #8 align 2 {
  %3 = getelementptr inbounds nuw i8, ptr %0, i64 152
  %4 = load i32, ptr %3, align 8, !tbaa !67
  %5 = load ptr, ptr %1, align 8
  br label %6

6:                                                ; preds = %7, %2
  %.0 = phi i32 [ %4, %2 ], [ %8, %7 ]
  %.not = icmp eq i32 %.0, 0
  br i1 %.not, label %.loopexit, label %7

7:                                                ; preds = %6
  %8 = add i32 %.0, -1
  %9 = lshr i32 %8, 5
  %10 = zext nneg i32 %9 to i64
  %11 = getelementptr inbounds nuw i32, ptr %5, i64 %10
  %12 = load i32, ptr %11, align 4, !tbaa !15
  %13 = and i32 %8, 31
  %14 = shl nuw i32 1, %13
  %15 = and i32 %12, %14
  %.not6 = icmp eq i32 %15, 0
  br i1 %.not6, label %16, label %6, !llvm.loop !111

16:                                               ; preds = %7
  %17 = sub i32 %4, %.0
  br label %.loopexit

.loopexit:                                        ; preds = %6, %16
  %.05 = phi i32 [ %17, %16 ], [ %4, %6 ]
  ret i32 %.05
}